(dp1
S'CSPadPixCoords'
p2
(dp3
S'LIBS'
p4
(lp5
g2
asS'DEPS'
p6
(lp7
S'ConfigSvc'
p8
aS'MsgLogger'
p9
aS'PSEnv'
p10
aS'PSTime'
p11
aS'RootHistoManager'
p12
aS'boost'
p13
aS'ErrSvc'
p14
aS'psana'
p15
aS'pdsdata'
p16
aS'PSCalib'
p17
aS'psddl_psana'
p18
aS'ndarray'
p19
aS'PSEvt'
p20
aS'pdscalibdata'
p21
aS'PSHist'
p22
aS'root'
p23
assS'chuck_ana_pkg'
p24
(dp25
g4
(lp26
g24
aS'libcheetah'
p27
aS'hdf5'
p28
asg6
(lp29
S'ErrSvc'
p30
aS'psana'
p31
aS'PSTime'
p32
aS'PSEvt'
p33
aS'pdsdata'
p34
aS'ConfigSvc'
p35
aS'MsgLogger'
p36
aS'PSEnv'
p37
aS'RootHistoManager'
p38
ag13
aS'PSHist'
p39
aS'psddl_psana'
p40
aS'root'
p41
aS'ndarray'
p42
assS'cheetah_ana_pkg'
p43
(dp44
g4
(lp45
g43
aS'libcheetah'
p46
aS'hdf5'
p47
asg6
(lp48
S'ErrSvc'
p49
aS'psana'
p50
aS'PSTime'
p51
aS'PSEvt'
p52
aS'pdsdata'
p53
aS'ConfigSvc'
p54
aS'MsgLogger'
p55
aS'PSEnv'
p56
aS'RootHistoManager'
p57
ag13
aS'PSHist'
p58
aS'psddl_psana'
p59
aS'root'
p60
aS'ndarray'
p61
ass.