(dp1
S'chuck_ana_pkg'
p2
(dp3
S'LIBS'
p4
(lp5
g2
aS'libcheetah'
p6
aS'hdf5'
p7
asS'DEPS'
p8
(lp9
S'ErrSvc'
p10
aS'psana'
p11
aS'PSTime'
p12
aS'PSEvt'
p13
aS'pdsdata'
p14
aS'ConfigSvc'
p15
aS'MsgLogger'
p16
aS'PSEnv'
p17
aS'RootHistoManager'
p18
aS'boost'
p19
aS'PSHist'
p20
aS'psddl_psana'
p21
aS'root'
p22
aS'ndarray'
p23
assS'cheetah_ana_pkg'
p24
(dp25
g4
(lp26
g24
aS'libcheetah'
p27
aS'hdf5'
p28
asg8
(lp29
S'ErrSvc'
p30
aS'psana'
p31
aS'PSTime'
p32
aS'PSEvt'
p33
aS'pdsdata'
p34
aS'ConfigSvc'
p35
aS'MsgLogger'
p36
aS'PSEnv'
p37
aS'RootHistoManager'
p38
ag19
aS'PSHist'
p39
aS'psddl_psana'
p40
aS'root'
p41
aS'ndarray'
p42
ass.