(dp1
S'chuck_ana_pkg'
p2
(dp3
S'LIBS'
p4
(lp5
g2
aS'libcheetah'
p6
aS'hdf5'
p7
asS'DEPS'
p8
(lp9
S'ErrSvc'
p10
aS'psana'
p11
aS'PSTime'
p12
aS'PSEvt'
p13
aS'pdsdata'
p14
aS'ConfigSvc'
p15
aS'MsgLogger'
p16
aS'PSEnv'
p17
aS'RootHistoManager'
p18
aS'boost'
p19
aS'PSHist'
p20
aS'psddl_psana'
p21
aS'root'
p22
aS'ndarray'
p23
assS'ImgAlgos'
p24
(dp25
g4
(lp26
g24
asg8
(lp27
S'ErrSvc'
p28
aS'psana'
p29
aS'pdsdata'
p30
aS'ConfigSvc'
p31
aS'MsgLogger'
p32
aS'PSEnv'
p33
aS'CSPadPixCoords'
p34
aS'cspad_mod'
p35
aS'psddl_psana'
p36
aS'ndarray'
p37
aS'PSTime'
p38
aS'PSEvt'
p39
aS'root'
p40
aS'RootHistoManager'
p41
aS'PSHist'
p42
ag19
assS'cheetah_ana_pkg'
p43
(dp44
g4
(lp45
g43
aS'libcheetah'
p46
aS'hdf5'
p47
asg8
(lp48
S'ErrSvc'
p49
aS'psana'
p50
aS'PSTime'
p51
aS'PSEvt'
p52
aS'pdsdata'
p53
aS'ConfigSvc'
p54
aS'MsgLogger'
p55
aS'PSEnv'
p56
aS'RootHistoManager'
p57
ag19
aS'PSHist'
p58
aS'psddl_psana'
p59
aS'root'
p60
aS'ndarray'
p61
ass.